target datalayout = "e-m:e-p270:32:32-p271:32:32-p272:64:64-i64:64-i128:128-f80:128-n8:16:32:64-S128"
target triple = "x86_64-pc-linux-gnu"

%struct.clear_midx_data = type { ptr, i32, ptr }

@.str.13 = private unnamed_addr constant [23 x i8] c"multi-pack-index-%s.%s\00", align 1
@.str.14 = private unnamed_addr constant [19 x i8] c"multi-pack-index.d\00", align 1
@.str.66 = private unnamed_addr constant [27 x i8] c"size_t overflow: %lu * %lu\00", align 1

; Function Attrs: inlinehint nounwind uwtable
define internal i64 @st_mult(i64 noundef %0, i64 noundef %1) #2 {
  %3 = alloca i64, align 8
  %4 = alloca i64, align 8
  store i64 %0, ptr %3, align 8, !tbaa !11
  store i64 %1, ptr %4, align 8, !tbaa !11
  %5 = load i64, ptr %3, align 8, !tbaa !11
  %6 = icmp ne i64 %5, 0
  br i1 %6, label %7, label %15

7:                                                ; preds = %2
  %8 = load i64, ptr %4, align 8, !tbaa !11
  %9 = load i64, ptr %3, align 8, !tbaa !11
  %10 = udiv i64 -1, %9
  %11 = icmp ugt i64 %8, %10
  br i1 %11, label %12, label %15

12:                                               ; preds = %7
  %13 = load i64, ptr %3, align 8, !tbaa !11
  %14 = load i64, ptr %4, align 8, !tbaa !11
  call void (ptr, ...) @die(ptr noundef @.str.66, i64 noundef %13, i64 noundef %14) #14
  unreachable

15:                                               ; preds = %7, %2
  %16 = load i64, ptr %3, align 8, !tbaa !11
  %17 = load i64, ptr %4, align 8, !tbaa !11
  %18 = mul i64 %16, %17
  ret i64 %18
}

; Function Attrs: nounwind uwtable
define dso_local void @clear_incremental_midx_files_ext(ptr noundef %0, ptr noundef %1, ptr noundef %2, i32 noundef %3) #0 {
  %5 = alloca ptr, align 8
  %6 = alloca ptr, align 8
  %7 = alloca ptr, align 8
  %8 = alloca i32, align 4
  %9 = alloca %struct.clear_midx_data, align 8
  %10 = alloca i32, align 4
  store ptr %0, ptr %5, align 8, !tbaa !9
  store ptr %1, ptr %6, align 8, !tbaa !9
  store ptr %2, ptr %7, align 8, !tbaa !50
  store i32 %3, ptr %8, align 4, !tbaa !40
  call void @llvm.lifetime.start.p0(i64 24, ptr %9) #13
  call void @llvm.lifetime.start.p0(i64 4, ptr %10) #13
  call void @llvm.memset.p0.i64(ptr align 8 %9, i8 0, i64 24, i1 false)
  %11 = load i32, ptr %8, align 4, !tbaa !40
  %12 = zext i32 %11 to i64
  %13 = call i64 @st_mult(i64 noundef 8, i64 noundef %12)
  %14 = call ptr @xmalloc(i64 noundef %13)
  %15 = getelementptr inbounds nuw %struct.clear_midx_data, ptr %9, i32 0, i32 0
  store ptr %14, ptr %15, align 8, !tbaa !109
  store i32 0, ptr %10, align 4, !tbaa !40
  br label %16

16:                                               ; preds = %33, %4
  %17 = load i32, ptr %10, align 4, !tbaa !40
  %18 = load i32, ptr %8, align 4, !tbaa !40
  %19 = icmp ult i32 %17, %18
  br i1 %19, label %20, label %36

20:                                               ; preds = %16
  %21 = load ptr, ptr %7, align 8, !tbaa !50
  %22 = load i32, ptr %10, align 4, !tbaa !40
  %23 = zext i32 %22 to i64
  %24 = getelementptr inbounds nuw ptr, ptr %21, i64 %23
  %25 = load ptr, ptr %24, align 8, !tbaa !9
  %26 = load ptr, ptr %6, align 8, !tbaa !9
  %27 = call ptr (ptr, ...) @xstrfmt(ptr noundef @.str.13, ptr noundef %25, ptr noundef %26)
  %28 = getelementptr inbounds nuw %struct.clear_midx_data, ptr %9, i32 0, i32 0
  %29 = load ptr, ptr %28, align 8, !tbaa !109
  %30 = load i32, ptr %10, align 4, !tbaa !40
  %31 = zext i32 %30 to i64
  %32 = getelementptr inbounds nuw ptr, ptr %29, i64 %31
  store ptr %27, ptr %32, align 8, !tbaa !9
  br label %33

33:                                               ; preds = %20
  %34 = load i32, ptr %10, align 4, !tbaa !40
  %35 = add i32 %34, 1
  store i32 %35, ptr %10, align 4, !tbaa !40
  br label %16, !llvm.loop !116

36:                                               ; preds = %16
  %37 = load i32, ptr %8, align 4, !tbaa !40
  %38 = getelementptr inbounds nuw %struct.clear_midx_data, ptr %9, i32 0, i32 1
  store i32 %37, ptr %38, align 8, !tbaa !111
  %39 = load ptr, ptr %6, align 8, !tbaa !9
  %40 = getelementptr inbounds nuw %struct.clear_midx_data, ptr %9, i32 0, i32 2
  store ptr %39, ptr %40, align 8, !tbaa !112
  %41 = load ptr, ptr %5, align 8, !tbaa !9
  call void @for_each_file_in_pack_subdir(ptr noundef %41, ptr noundef @.str.14, ptr noundef @clear_midx_file_ext, ptr noundef %9)
  store i32 0, ptr %10, align 4, !tbaa !40
  br label %42

42:                                               ; preds = %53, %36
  %43 = load i32, ptr %10, align 4, !tbaa !40
  %44 = load i32, ptr %8, align 4, !tbaa !40
  %45 = icmp ult i32 %43, %44
  br i1 %45, label %46, label %56

46:                                               ; preds = %42
  %47 = getelementptr inbounds nuw %struct.clear_midx_data, ptr %9, i32 0, i32 0
  %48 = load ptr, ptr %47, align 8, !tbaa !109
  %49 = load i32, ptr %10, align 4, !tbaa !40
  %50 = zext i32 %49 to i64
  %51 = getelementptr inbounds nuw ptr, ptr %48, i64 %50
  %52 = load ptr, ptr %51, align 8, !tbaa !9
  call void @free(ptr noundef %52) #13
  br label %53

53:                                               ; preds = %46
  %54 = load i32, ptr %10, align 4, !tbaa !40
  %55 = add i32 %54, 1
  store i32 %55, ptr %10, align 4, !tbaa !40
  br label %42, !llvm.loop !117

56:                                               ; preds = %42
  %57 = getelementptr inbounds nuw %struct.clear_midx_data, ptr %9, i32 0, i32 0
  %58 = load ptr, ptr %57, align 8, !tbaa !109
  call void @free(ptr noundef %58) #13
  call void @llvm.lifetime.end.p0(i64 4, ptr %10) #13
  call void @llvm.lifetime.end.p0(i64 24, ptr %9) #13
  ret void
}