; Function Attrs: nounwind uwtable
define dso_local void @clear_incremental_midx_files_ext(ptr noundef %0, ptr noundef %1, ptr noundef readonly captures(none) %2, i32 noundef %3) local_unnamed_addr #1 {
  %5 = alloca %struct.clear_midx_data, align 8
  call void @llvm.lifetime.start.p0(i64 24, ptr nonnull %5) #22
  %6 = getelementptr inbounds nuw i8, ptr %5, i64 8
  call void @llvm.memset.p0.i64(ptr noundef nonnull align 8 dereferenceable(24) %6, i8 0, i64 16, i1 false)
  %7 = zext i32 %3 to i64
  %8 = shl nuw nsw i64 %7, 3
  %9 = tail call ptr @xmalloc(i64 noundef %8) #22
  store ptr %9, ptr %5, align 8, !tbaa !98
  %.not = icmp eq i32 %3, 0
  br i1 %.not, label %._crit_edge.thread, label %.lr.ph

._crit_edge.thread:                               ; preds = %4
  %10 = getelementptr inbounds nuw i8, ptr %5, i64 8
  store i32 %3, ptr %10, align 8, !tbaa !100
  %11 = getelementptr inbounds nuw i8, ptr %5, i64 16
  store ptr %1, ptr %11, align 8, !tbaa !101
  call void @for_each_file_in_pack_subdir(ptr noundef %0, ptr noundef nonnull @.str.14, ptr noundef nonnull @clear_midx_file_ext, ptr noundef nonnull %5) #22
  br label %._crit_edge19

.lr.ph:                                           ; preds = %4, %.lr.ph
  %indvars.iv = phi i64 [ %indvars.iv.next, %.lr.ph ], [ 0, %4 ]
  %12 = getelementptr inbounds nuw ptr, ptr %2, i64 %indvars.iv
  %13 = load ptr, ptr %12, align 8, !tbaa !4
  %14 = tail call ptr (ptr, ...) @xstrfmt(ptr noundef nonnull @.str.13, ptr noundef %13, ptr noundef %1) #22
  %15 = getelementptr inbounds nuw ptr, ptr %9, i64 %indvars.iv
  store ptr %14, ptr %15, align 8, !tbaa !4
  %indvars.iv.next = add nuw nsw i64 %indvars.iv, 1
  %exitcond.not = icmp eq i64 %indvars.iv.next, %7
  br i1 %exitcond.not, label %._crit_edge, label %.lr.ph, !llvm.loop !103

._crit_edge:                                      ; preds = %.lr.ph
  %16 = getelementptr inbounds nuw i8, ptr %5, i64 8
  store i32 %3, ptr %16, align 8, !tbaa !100
  %17 = getelementptr inbounds nuw i8, ptr %5, i64 16
  store ptr %1, ptr %17, align 8, !tbaa !101
  call void @for_each_file_in_pack_subdir(ptr noundef %0, ptr noundef nonnull @.str.14, ptr noundef nonnull @clear_midx_file_ext, ptr noundef nonnull %5) #22
  br label %.lr.ph18

.lr.ph18:                                         ; preds = %._crit_edge, %.lr.ph18
  %indvars.iv22 = phi i64 [ %indvars.iv.next23, %.lr.ph18 ], [ 0, %._crit_edge ]
  %18 = load ptr, ptr %5, align 8, !tbaa !98
  %19 = getelementptr inbounds nuw ptr, ptr %18, i64 %indvars.iv22
  %20 = load ptr, ptr %19, align 8, !tbaa !4
  call void @free(ptr noundef %20) #22
  %indvars.iv.next23 = add nuw nsw i64 %indvars.iv22, 1
  %exitcond26.not = icmp eq i64 %indvars.iv.next23, %7
  br i1 %exitcond26.not, label %._crit_edge19, label %.lr.ph18, !llvm.loop !104

._crit_edge19:                                    ; preds = %.lr.ph18, %._crit_edge.thread
  %21 = load ptr, ptr %5, align 8, !tbaa !98
  call void @free(ptr noundef %21) #22
  call void @llvm.lifetime.end.p0(i64 24, ptr nonnull %5) #22
  ret void
}